(dp0
S'Pruebas_Luigi/aguafortistas'
p1
(lp2
S'agua-int_00000089.jpg'
p3
aS'agua-int_00000026.jpg'
p4
aS'agua-int_00000003.jpg'
p5
aS'agua-int_00000062.jpg'
p6
aS'agua-int_00000079.jpg'
p7
aS'agua-int_00000075.jpg'
p8
aS'agua-int_00000043.jpg'
p9
aS'agua-int_00000050.jpg'
p10
aS'agua-int_00000002.jpg'
p11
aS'agua-int_00000015.jpg'
p12
aS'agua-int_00000067.jpg'
p13
aS'agua-int_00000085.jpg'
p14
aS'agua-int_00000042.jpg'
p15
aS'agua-int_00000044.jpg'
p16
aS'agua-int_00000028.jpg'
p17
aS'agua-int_00000018.jpg'
p18
aS'agua-int_00000039.jpg'
p19
aS'agua-int_00000008.jpg'
p20
aS'agua-int_00000078.jpg'
p21
aS'agua-int_00000009.jpg'
p22
aS'agua-ctp_00000001.jpg'
p23
aS'agua-int_00000022.jpg'
p24
aS'agua-int_00000023.jpg'
p25
aS'agua-int_00000059.jpg'
p26
aS'agua-int_00000093.jpg'
p27
aS'agua-int_00000066.jpg'
p28
aS'agua-int_00000032.jpg'
p29
aS'agua-int_00000020.jpg'
p30
aS'agua-int_00000037.jpg'
p31
aS'agua-int_00000057.jpg'
p32
aS'agua-int_00000077.jpg'
p33
aS'agua-int_00000064.jpg'
p34
aS'agua-int_00000010.jpg'
p35
aS'agua-int_00000045.jpg'
p36
aS'agua-int_00000025.jpg'
p37
aS'agua-int_00000056.jpg'
p38
aS'agua-int_00000055.jpg'
p39
aS'agua-int_00000046.jpg'
p40
aS'agua-int_00000016.jpg'
p41
aS'agua-int_00000029.jpg'
p42
aS'agua-int_00000084.jpg'
p43
aS'agua-int_00000092.jpg'
p44
aS'agua-int_00000070.jpg'
p45
aS'agua-int_00000090.jpg'
p46
aS'agua-int_00000097.jpg'
p47
aS'agua-int_00000005.jpg'
p48
aS'agua-int_00000096.jpg'
p49
aS'agua-int_00000054.jpg'
p50
aS'agua-int_00000013.jpg'
p51
aS'agua-int_00000049.jpg'
p52
aS'agua-int_00000031.jpg'
p53
aS'agua-int_00000088.jpg'
p54
aS'agua-int_00000074.jpg'
p55
aS'agua-int_00000035.jpg'
p56
aS'agua-int_00000047.jpg'
p57
aS'agua-int_00000083.jpg'
p58
aS'agua-int_00000087.jpg'
p59
aS'agua-int_00000006.jpg'
p60
aS'agua-int_00000036.jpg'
p61
aS'agua-int_00000068.jpg'
p62
aS'agua-int_00000027.jpg'
p63
aS'agua-int_00000082.jpg'
p64
aS'agua-int_00000053.jpg'
p65
aS'agua-int_00000017.jpg'
p66
aS'agua-int_00000060.jpg'
p67
aS'agua-int_00000048.jpg'
p68
aS'agua-int_00000024.jpg'
p69
aS'agua-int_00000034.jpg'
p70
aS'agua-int_00000073.jpg'
p71
aS'agua-int_00000094.jpg'
p72
aS'agua-int_00000076.jpg'
p73
aS'agua-int_00000033.jpg'
p74
aS'agua-int_00000041.jpg'
p75
aS'agua-int_00000072.jpg'
p76
aS'agua-int_00000051.jpg'
p77
aS'agua-por_00000001.jpg'
p78
aS'agua-int_00000052.jpg'
p79
aS'agua-int_00000007.jpg'
p80
aS'agua-int_00000004.jpg'
p81
aS'agua-int_00000080.jpg'
p82
aS'agua-int_00000019.jpg'
p83
aS'agua-int_00000014.jpg'
p84
aS'agua-int_00000040.jpg'
p85
aS'agua-int_00000061.jpg'
p86
aS'agua-int_00000069.jpg'
p87
aS'agua-int_00000011.jpg'
p88
aS'agua-int_00000098.jpg'
p89
aS'agua-int_00000095.jpg'
p90
aS'agua-int_00000081.jpg'
p91
aS'agua-int_00000071.jpg'
p92
aS'agua-int_00000065.jpg'
p93
aS'agua-int_00000030.jpg'
p94
aS'agua-int_00000058.jpg'
p95
aS'agua-int_00000091.jpg'
p96
aS'agua-int_00000021.jpg'
p97
aS'agua-int_00000038.jpg'
p98
aS'agua-int_00000063.jpg'
p99
aS'agua-int_00000001.jpg'
p100
aS'agua-int_00000012.jpg'
p101
aS'agua-int_00000086.jpg'
p102
asS'Pruebas_Luigi/album_la_arquitectura_en_mexico'
p103
(lp104
S'aam-int_00000045.jpg'
p105
aS'aam-int_00000016.jpg'
p106
aS'aam-int_00000082.jpg'
p107
aS'aam-int_00000097.jpg'
p108
aS'aam-int_00000013.jpg'
p109
aS'aam-int_00000095.jpg'
p110
aS'aam-int_00000102.jpg'
p111
aS'aam-int_00000093.jpg'
p112
aS'aam-int_00000073.jpg'
p113
aS'aam-int_00000030.jpg'
p114
aS'aam-int_00000020.jpg'
p115
aS'aam-int_00000004.jpg'
p116
aS'aam-int_00000099.jpg'
p117
aS'aam-int_00000075.jpg'
p118
aS'aam-int_00000010.jpg'
p119
aS'aam-int_00000027.jpg'
p120
aS'aam-int_00000055.jpg'
p121
aS'aam-int_00000009.jpg'
p122
aS'aam-int_00000072.jpg'
p123
aS'aam-int_00000052.jpg'
p124
aS'aam-int_00000001.jpg'
p125
aS'aam-int_00000069.jpg'
p126
aS'aam-int_00000003.jpg'
p127
aS'aam-int_00000076.jpg'
p128
aS'aam-int_00000103.jpg'
p129
aS'aam-int_00000090.jpg'
p130
aS'aam-int_00000031.jpg'
p131
aS'aam-int_00000059.jpg'
p132
aS'aam-int_00000047.jpg'
p133
aS'aam-int_00000053.jpg'
p134
aS'aam-int_00000046.jpg'
p135
aS'aam-int_00000086.jpg'
p136
aS'aam-int_00000066.jpg'
p137
aS'aam-int_00000064.jpg'
p138
aS'aam-int_00000005.jpg'
p139
aS'aam-int_00000051.jpg'
p140
aS'aam-int_00000021.jpg'
p141
aS'aam-int_00000070.jpg'
p142
aS'aam-int_00000065.jpg'
p143
aS'aam-int_00000101.jpg'
p144
aS'aam-int_00000040.jpg'
p145
aS'aam-int_00000039.jpg'
p146
aS'aam-int_00000081.jpg'
p147
aS'aam-int_00000096.jpg'
p148
aS'aam-int_00000024.jpg'
p149
aS'aam-int_00000056.jpg'
p150
aS'aam-int_00000061.jpg'
p151
aS'aam-int_00000060.jpg'
p152
aS'aam-int_00000006.jpg'
p153
aS'aam-int_00000105.jpg'
p154
aS'aam-int_00000100.jpg'
p155
aS'aam-int_00000032.jpg'
p156
aS'aam-int_00000041.jpg'
p157
aS'aam-int_00000023.jpg'
p158
aS'aam-int_00000018.jpg'
p159
aS'aam-int_00000094.jpg'
p160
aS'aam-int_00000044.jpg'
p161
aS'aam-int_00000077.jpg'
p162
aS'aam-int_00000049.jpg'
p163
aS'aam-int_00000098.jpg'
p164
aS'aam-int_00000079.jpg'
p165
aS'aam-int_00000084.jpg'
p166
aS'aam-int_00000067.jpg'
p167
aS'aam-int_00000012.jpg'
p168
aS'aam-int_00000036.jpg'
p169
aS'aam-int_00000002.jpg'
p170
aS'aam-int_00000029.jpg'
p171
aS'aam-int_00000074.jpg'
p172
aS'aam-int_00000087.jpg'
p173
aS'aam-int_00000019.jpg'
p174
aS'aam-int_00000058.jpg'
p175
aS'aam-int_00000080.jpg'
p176
aS'aam-int_00000104.jpg'
p177
aS'aam-int_00000085.jpg'
p178
aS'aam-int_00000068.jpg'
p179
aS'aam-int_00000022.jpg'
p180
aS'aam-int_00000042.jpg'
p181
aS'aam-int_00000007.jpg'
p182
aS'aam-int_00000106.jpg'
p183
aS'aam-int_00000035.jpg'
p184
aS'aam-int_00000037.jpg'
p185
aS'aam-int_00000028.jpg'
p186
aS'aam-int_00000048.jpg'
p187
aS'aam-int_00000091.jpg'
p188
aS'aam-int_00000050.jpg'
p189
aS'aam-int_00000071.jpg'
p190
aS'aam-cpt_000001.jpg'
p191
aS'aam-int_00000025.jpg'
p192
aS'aam-int_00000089.jpg'
p193
aS'aam-int_00000011.jpg'
p194
aS'aam-int_00000062.jpg'
p195
aS'aam-por_000002.jpg'
p196
aS'aam-int_00000043.jpg'
p197
aS'aam-int_00000026.jpg'
p198
aS'aam-int_00000083.jpg'
p199
aS'aam-int_00000057.jpg'
p200
aS'aam-int_00000092.jpg'
p201
aS'aam-int_00000008.jpg'
p202
aS'aam-int_00000078.jpg'
p203
aS'aam-int_00000034.jpg'
p204
aS'aam-int_00000038.jpg'
p205
aS'aam-int_00000088.jpg'
p206
aS'aam-int_00000033.jpg'
p207
aS'aam-int_00000054.jpg'
p208
aS'aam-int_00000063.jpg'
p209
aS'aam-int_00000017.jpg'
p210
aS'aam-int_00000015.jpg'
p211
aS'aam-int_00000014.jpg'
p212
asS'Pruebas_Luigi/algo_mio'
p213
(lp214
S'alm-int_00000063.jpg'
p215
aS'alm-int_00000054.jpg'
p216
aS'alm-int_00000072.jpg'
p217
aS'alm-int_00000003.jpg'
p218
aS'alm-int_00000100.jpg'
p219
aS'alm-int_00000007.jpg'
p220
aS'alm-int_00000011.jpg'
p221
aS'alm-int_00000022.jpg'
p222
aS'alm-int_00000005.jpg'
p223
aS'alm-int_00000056.jpg'
p224
aS'alm-int_00000071.jpg'
p225
aS'alm-int_00000006.jpg'
p226
aS'alm-int_00000088.jpg'
p227
aS'alm-int_00000004.jpg'
p228
aS'alm-int_00000064.jpg'
p229
aS'alm-int_00000040.jpg'
p230
aS'alm-int_00000049.jpg'
p231
aS'alm-int_00000027.jpg'
p232
aS'alm-int_00000086.jpg'
p233
aS'alm-int_00000098.jpg'
p234
aS'alm-int_00000013.jpg'
p235
aS'alm-int_00000085.jpg'
p236
aS'alm-int_00000012.jpg'
p237
aS'alm-int_00000079.jpg'
p238
aS'alm-int_00000109.jpg'
p239
aS'alm-int_00000083.jpg'
p240
aS'alm-int_00000082.jpg'
p241
aS'alm-int_00000014.jpg'
p242
aS'alm-int_00000021.jpg'
p243
aS'alm-int_00000024.jpg'
p244
aS'alm-int_00000035.jpg'
p245
aS'alm-int_00000081.jpg'
p246
aS'alm-int_00000095.jpg'
p247
aS'alm-int_00000070.jpg'
p248
aS'alm-int_00000043.jpg'
p249
aS'alm-int_00000046.jpg'
p250
aS'alm-int_00000091.jpg'
p251
aS'alm-int_00000114.jpg'
p252
aS'alm-int_00000058.jpg'
p253
aS'alm-int_00000036.jpg'
p254
aS'alm-ctp_00000001.jpg'
p255
aS'alm-int_00000042.jpg'
p256
aS'alm-int_00000074.jpg'
p257
aS'alm-int_00000104.jpg'
p258
aS'alm-int_00000028.jpg'
p259
aS'alm-int_00000103.jpg'
p260
aS'alm-int_00000075.jpg'
p261
aS'alm-int_00000018.jpg'
p262
aS'alm-int_00000115.jpg'
p263
aS'alm-int_00000062.jpg'
p264
aS'alm-int_00000050.jpg'
p265
aS'alm-int_00000101.jpg'
p266
aS'alm-int_00000017.jpg'
p267
aS'alm-int_00000002.jpg'
p268
aS'alm-int_00000039.jpg'
p269
aS'alm-int_00000113.jpg'
p270
aS'alm-int_00000026.jpg'
p271
aS'alm-int_00000019.jpg'
p272
aS'alm-int_00000078.jpg'
p273
aS'alm-int_00000008.jpg'
p274
aS'alm-int_00000118.jpg'
p275
aS'alm-int_00000068.jpg'
p276
aS'alm-int_00000030.jpg'
p277
aS'alm-int_00000105.jpg'
p278
aS'alm-int_00000080.jpg'
p279
aS'alm-int_00000015.jpg'
p280
aS'alm-int_00000055.jpg'
p281
aS'alm-int_00000023.jpg'
p282
aS'alm-int_00000041.jpg'
p283
aS'alm-int_00000099.jpg'
p284
aS'alm-int_00000067.jpg'
p285
aS'alm-int_00000066.jpg'
p286
aS'alm-int_00000045.jpg'
p287
aS'alm-int_00000020.jpg'
p288
aS'alm-int_00000031.jpg'
p289
aS'alm-int_00000107.jpg'
p290
aS'alm-int_00000034.jpg'
p291
aS'alm-int_00000092.jpg'
p292
aS'alm-int_00000108.jpg'
p293
aS'alm-int_00000037.jpg'
p294
aS'alm-int_00000053.jpg'
p295
aS'alm-int_00000084.jpg'
p296
aS'alm-int_00000009.jpg'
p297
aS'alm-int_00000069.jpg'
p298
aS'alm-int_00000087.jpg'
p299
aS'alm-por_00000002.jpg'
p300
aS'alm-int_00000001.jpg'
p301
aS'alm-int_00000089.jpg'
p302
aS'alm-int_00000052.jpg'
p303
aS'alm-int_00000048.jpg'
p304
aS'alm-int_00000051.jpg'
p305
aS'alm-int_00000090.jpg'
p306
aS'alm-int_00000112.jpg'
p307
aS'alm-int_00000096.jpg'
p308
aS'alm-int_00000106.jpg'
p309
aS'alm-int_00000076.jpg'
p310
aS'alm-int_00000061.jpg'
p311
aS'alm-int_00000059.jpg'
p312
aS'alm-int_00000116.jpg'
p313
aS'alm-int_00000060.jpg'
p314
aS'alm-int_00000073.jpg'
p315
aS'alm-int_00000038.jpg'
p316
aS'alm-int_00000065.jpg'
p317
aS'alm-int_00000102.jpg'
p318
aS'alm-int_00000044.jpg'
p319
aS'alm-int_00000110.jpg'
p320
aS'alm-int_00000033.jpg'
p321
aS'alm-int_00000047.jpg'
p322
aS'alm-int_00000025.jpg'
p323
aS'alm-int_00000077.jpg'
p324
aS'alm-int_00000097.jpg'
p325
aS'alm-int_00000029.jpg'
p326
aS'alm-int_00000093.jpg'
p327
aS'alm-int_00000016.jpg'
p328
aS'alm-int_00000032.jpg'
p329
aS'alm-int_00000057.jpg'
p330
aS'alm-int_00000111.jpg'
p331
aS'alm-int_00000010.jpg'
p332
aS'alm-int_00000117.jpg'
p333
aS'alm-int_00000094.jpg'
p334
as.